target datalayout = "e-m:e-p270:32:32-p271:32:32-p272:64:64-i64:64-i128:128-f80:128-n8:16:32:64-S128"
target triple = "x86_64-pc-linux-gnu"

%struct.RSymbol = type { %struct.RBasic, i64, i64, i64 }
%struct.RBasic = type { i64, i64 }

; Function Attrs: inlinehint nounwind sspstrong willreturn memory(none) uwtable
define internal zeroext i1 @RB_STATIC_SYM_P(i64 noundef %0) #6 {
  %2 = alloca i64, align 8
  %3 = alloca i64, align 8
  store i64 %0, ptr %2, align 8, !tbaa !11
  call void @llvm.lifetime.start.p0(i64 8, ptr %3) #24
  store i64 255, ptr %3, align 8, !tbaa !11
  %4 = load i64, ptr %2, align 8, !tbaa !11
  %5 = and i64 %4, 255
  %6 = icmp eq i64 %5, 12
  call void @llvm.lifetime.end.p0(i64 8, ptr %3) #24
  ret i1 %6
}

; Function Attrs: inlinehint nounwind sspstrong uwtable
define internal i32 @sym_type(i64 noundef %0) #4 {
  %2 = alloca i32, align 4
  %3 = alloca i64, align 8
  %4 = alloca i64, align 8
  %5 = alloca i32, align 4
  store i64 %0, ptr %3, align 8, !tbaa !11
  call void @llvm.lifetime.start.p0(i64 8, ptr %4) #24
  %6 = load i64, ptr %3, align 8, !tbaa !11
  %7 = call zeroext i1 @RB_STATIC_SYM_P(i64 noundef %6) #25
  br i1 %7, label %8, label %15

8:                                                ; preds = %1
  %9 = load i64, ptr %3, align 8, !tbaa !11
  %10 = lshr i64 %9, 8
  store i64 %10, ptr %4, align 8, !tbaa !11
  %11 = load i64, ptr %4, align 8, !tbaa !11
  %12 = icmp ule i64 %11, 170
  br i1 %12, label %13, label %14

13:                                               ; preds = %8
  store i32 -1, ptr %2, align 4
  store i32 1, ptr %5, align 4
  br label %24

14:                                               ; preds = %8
  br label %20

15:                                               ; preds = %1
  %16 = load i64, ptr %3, align 8, !tbaa !11
  %17 = inttoptr i64 %16 to ptr
  %18 = getelementptr inbounds nuw %struct.RSymbol, ptr %17, i32 0, i32 3
  %19 = load i64, ptr %18, align 8, !tbaa !29
  store i64 %19, ptr %4, align 8, !tbaa !11
  br label %20

20:                                               ; preds = %15, %14
  %21 = load i64, ptr %4, align 8, !tbaa !11
  %22 = and i64 %21, 14
  %23 = trunc i64 %22 to i32
  store i32 %23, ptr %2, align 4
  store i32 1, ptr %5, align 4
  br label %24

24:                                               ; preds = %20, %13
  call void @llvm.lifetime.end.p0(i64 8, ptr %4) #24
  %25 = load i32, ptr %2, align 4
  ret i32 %25
}

; Function Attrs: nounwind sspstrong willreturn memory(read) uwtable
define hidden i32 @rb_is_attrset_sym(i64 noundef %0) #11 {
  %2 = alloca i64, align 8
  store i64 %0, ptr %2, align 8, !tbaa !11
  %3 = load i64, ptr %2, align 8, !tbaa !11
  %4 = call i32 @sym_type(i64 noundef %3)
  %5 = icmp eq i32 %4, 8
  %6 = zext i1 %5 to i32
  ret i32 %6
}